target datalayout = "e-m:e-p270:32:32-p271:32:32-p272:64:64-i64:64-i128:128-f80:128-n8:16:32:64-S128"
target triple = "x86_64-unknown-linux-gnu"

%"class.icu_75::UObject" = type { ptr }
%"class.icu_75::Normalizer2Impl" = type { %"class.icu_75::UObject", i16, i16, i16, i16, i16, i16, i16, i16, i16, i16, i16, i16, ptr, ptr, ptr, ptr, %"struct.icu_75::UInitOnce", ptr }
%"struct.icu_75::UInitOnce" = type { %"struct.std::atomic", i32 }
%"struct.std::atomic" = type { %"struct.std::__atomic_base" }
%"struct.std::__atomic_base" = type { i32 }
%struct.UCPTrie = type { ptr, %union.UCPTrieData, i32, i32, i32, i16, i8, i8, i32, i16, i16, i32, i32 }
%union.UCPTrieData = type { ptr }

@.str = private unnamed_addr constant [17 x i8] c" 000000000000\1000\00", align 1
@.str.1 = private unnamed_addr constant [17 x i8] c"\00\00\00\00\00\00\00\00\1E\0F\0F\0F\00\00\00\00\00", align 1

; Function Attrs: mustprogress nounwind uwtable
define linkonce_odr noundef signext i8 @_ZNK6icu_7515Normalizer2Impl17isAlgorithmicNoNoEt(ptr noundef nonnull align 8 dereferenceable(80) %this, i16 noundef zeroext %norm16) #2 comdat align 2 {
entry:
  %this.addr = alloca ptr, align 8
  %norm16.addr = alloca i16, align 2
  store ptr %this, ptr %this.addr, align 8
  store i16 %norm16, ptr %norm16.addr, align 2
  %this1 = load ptr, ptr %this.addr, align 8
  %limitNoNo = getelementptr inbounds %"class.icu_75::Normalizer2Impl", ptr %this1, i32 0, i32 10
  %0 = load i16, ptr %limitNoNo, align 2
  %conv = zext i16 %0 to i32
  %1 = load i16, ptr %norm16.addr, align 2
  %conv2 = zext i16 %1 to i32
  %cmp = icmp sle i32 %conv, %conv2
  br i1 %cmp, label %land.rhs, label %land.end

land.rhs:                                         ; preds = %entry
  %2 = load i16, ptr %norm16.addr, align 2
  %conv3 = zext i16 %2 to i32
  %minMaybeYes = getelementptr inbounds %"class.icu_75::Normalizer2Impl", ptr %this1, i32 0, i32 12
  %3 = load i16, ptr %minMaybeYes, align 2
  %conv4 = zext i16 %3 to i32
  %cmp5 = icmp slt i32 %conv3, %conv4
  br label %land.end

land.end:                                         ; preds = %land.rhs, %entry
  %4 = phi i1 [ false, %entry ], [ %cmp5, %land.rhs ]
  %conv6 = zext i1 %4 to i8
  ret i8 %conv6
}

; Function Attrs: mustprogress nounwind uwtable
define linkonce_odr noundef signext i8 @_ZNK6icu_7515Normalizer2Impl27norm16HasCompBoundaryBeforeEt(ptr noundef nonnull align 8 dereferenceable(80) %this, i16 noundef zeroext %norm16) #2 comdat align 2 {
entry:
  %this.addr = alloca ptr, align 8
  %norm16.addr = alloca i16, align 2
  store ptr %this, ptr %this.addr, align 8
  store i16 %norm16, ptr %norm16.addr, align 2
  %this1 = load ptr, ptr %this.addr, align 8
  %0 = load i16, ptr %norm16.addr, align 2
  %conv = zext i16 %0 to i32
  %minNoNoCompNoMaybeCC = getelementptr inbounds %"class.icu_75::Normalizer2Impl", ptr %this1, i32 0, i32 8
  %1 = load i16, ptr %minNoNoCompNoMaybeCC, align 2
  %conv2 = zext i16 %1 to i32
  %cmp = icmp slt i32 %conv, %conv2
  br i1 %cmp, label %lor.end, label %lor.rhs

lor.rhs:                                          ; preds = %entry
  %2 = load i16, ptr %norm16.addr, align 2
  %call = call noundef signext i8 @_ZNK6icu_7515Normalizer2Impl17isAlgorithmicNoNoEt(ptr noundef nonnull align 8 dereferenceable(80) %this1, i16 noundef zeroext %2)
  %tobool = icmp ne i8 %call, 0
  br label %lor.end

lor.end:                                          ; preds = %lor.rhs, %entry
  %3 = phi i1 [ true, %entry ], [ %tobool, %lor.rhs ]
  %conv3 = zext i1 %3 to i8
  ret i8 %conv3
}

; Function Attrs: mustprogress uwtable
define noundef signext i8 @_ZNK6icu_7515Normalizer2Impl21hasCompBoundaryBeforeEPKhS2_(ptr noundef nonnull align 8 dereferenceable(80) %this, ptr noundef %src, ptr noundef %limit) #0 align 2 {
entry:
  %retval = alloca i8, align 1
  %this.addr = alloca ptr, align 8
  %src.addr = alloca ptr, align 8
  %limit.addr = alloca ptr, align 8
  %norm16 = alloca i16, align 2
  %__lead = alloca i32, align 4
  %__t1 = alloca i8, align 1
  %__t2 = alloca i8, align 1
  %__t3 = alloca i8, align 1
  store ptr %this, ptr %this.addr, align 8
  store ptr %src, ptr %src.addr, align 8
  store ptr %limit, ptr %limit.addr, align 8
  %this1 = load ptr, ptr %this.addr, align 8
  %0 = load ptr, ptr %src.addr, align 8
  %1 = load ptr, ptr %limit.addr, align 8
  %cmp = icmp eq ptr %0, %1
  br i1 %cmp, label %if.then, label %if.end

if.then:                                          ; preds = %entry
  store i8 1, ptr %retval, align 1
  br label %return

if.end:                                           ; preds = %entry
  br label %do.body

do.body:                                          ; preds = %if.end
  %2 = load ptr, ptr %src.addr, align 8
  %incdec.ptr = getelementptr inbounds i8, ptr %2, i32 1
  store ptr %incdec.ptr, ptr %src.addr, align 8
  %3 = load i8, ptr %2, align 1
  %conv = zext i8 %3 to i32
  store i32 %conv, ptr %__lead, align 4
  %4 = load i32, ptr %__lead, align 4
  %and = and i32 %4, 128
  %cmp2 = icmp eq i32 %and, 0
  br i1 %cmp2, label %if.end93, label %if.then3

if.then3:                                         ; preds = %do.body
  %5 = load ptr, ptr %src.addr, align 8
  %6 = load ptr, ptr %limit.addr, align 8
  %cmp4 = icmp ne ptr %5, %6
  br i1 %cmp4, label %land.lhs.true, label %if.else

land.lhs.true:                                    ; preds = %if.then3
  %7 = load i32, ptr %__lead, align 4
  %cmp5 = icmp sge i32 %7, 224
  br i1 %cmp5, label %cond.true, label %cond.false70

cond.true:                                        ; preds = %land.lhs.true
  %8 = load i32, ptr %__lead, align 4
  %cmp6 = icmp slt i32 %8, 240
  br i1 %cmp6, label %cond.true7, label %cond.false

cond.true7:                                       ; preds = %cond.true
  %9 = load i32, ptr %__lead, align 4
  %and8 = and i32 %9, 15
  store i32 %and8, ptr %__lead, align 4
  %idxprom = sext i32 %and8 to i64
  %arrayidx = getelementptr inbounds [17 x i8], ptr @.str, i64 0, i64 %idxprom
  %10 = load i8, ptr %arrayidx, align 1
  %conv9 = sext i8 %10 to i32
  %11 = load ptr, ptr %src.addr, align 8
  %12 = load i8, ptr %11, align 1
  store i8 %12, ptr %__t1, align 1
  %conv10 = zext i8 %12 to i32
  %shr = ashr i32 %conv10, 5
  %shl = shl i32 1, %shr
  %and11 = and i32 %conv9, %shl
  %tobool = icmp ne i32 %and11, 0
  br i1 %tobool, label %land.lhs.true12, label %if.else

land.lhs.true12:                                  ; preds = %cond.true7
  %13 = load ptr, ptr %src.addr, align 8
  %incdec.ptr13 = getelementptr inbounds i8, ptr %13, i32 1
  store ptr %incdec.ptr13, ptr %src.addr, align 8
  %14 = load ptr, ptr %limit.addr, align 8
  %cmp14 = icmp ne ptr %incdec.ptr13, %14
  br i1 %cmp14, label %land.lhs.true15, label %if.else

land.lhs.true15:                                  ; preds = %land.lhs.true12
  %15 = load ptr, ptr %src.addr, align 8
  %16 = load i8, ptr %15, align 1
  %conv16 = zext i8 %16 to i32
  %sub = sub nsw i32 %conv16, 128
  %conv17 = trunc i32 %sub to i8
  store i8 %conv17, ptr %__t2, align 1
  %conv18 = zext i8 %conv17 to i32
  %cmp19 = icmp sle i32 %conv18, 63
  br i1 %cmp19, label %land.lhs.true20, label %if.else

land.lhs.true20:                                  ; preds = %land.lhs.true15
  %normTrie = getelementptr inbounds %"class.icu_75::Normalizer2Impl", ptr %this1, i32 0, i32 13
  %17 = load ptr, ptr %normTrie, align 8
  %index = getelementptr inbounds %struct.UCPTrie, ptr %17, i32 0, i32 0
  %18 = load ptr, ptr %index, align 8
  %19 = load i32, ptr %__lead, align 4
  %shl21 = shl i32 %19, 6
  %20 = load i8, ptr %__t1, align 1
  %conv22 = zext i8 %20 to i32
  %and23 = and i32 %conv22, 63
  %add = add nsw i32 %shl21, %and23
  %idxprom24 = sext i32 %add to i64
  %arrayidx25 = getelementptr inbounds i16, ptr %18, i64 %idxprom24
  %21 = load i16, ptr %arrayidx25, align 2
  %conv26 = zext i16 %21 to i32
  %22 = load i8, ptr %__t2, align 1
  %conv27 = zext i8 %22 to i32
  %add28 = add nsw i32 %conv26, %conv27
  store i32 %add28, ptr %__lead, align 4
  br i1 true, label %if.then87, label %if.else

cond.false:                                       ; preds = %cond.true
  %23 = load i32, ptr %__lead, align 4
  %sub29 = sub nsw i32 %23, 240
  store i32 %sub29, ptr %__lead, align 4
  %cmp30 = icmp sle i32 %sub29, 4
  br i1 %cmp30, label %land.lhs.true31, label %if.else

land.lhs.true31:                                  ; preds = %cond.false
  %24 = load ptr, ptr %src.addr, align 8
  %25 = load i8, ptr %24, align 1
  store i8 %25, ptr %__t1, align 1
  %conv32 = zext i8 %25 to i32
  %shr33 = ashr i32 %conv32, 4
  %idxprom34 = sext i32 %shr33 to i64
  %arrayidx35 = getelementptr inbounds [17 x i8], ptr @.str.1, i64 0, i64 %idxprom34
  %26 = load i8, ptr %arrayidx35, align 1
  %conv36 = sext i8 %26 to i32
  %27 = load i32, ptr %__lead, align 4
  %shl37 = shl i32 1, %27
  %and38 = and i32 %conv36, %shl37
  %tobool39 = icmp ne i32 %and38, 0
  br i1 %tobool39, label %land.lhs.true40, label %if.else

land.lhs.true40:                                  ; preds = %land.lhs.true31
  %28 = load i32, ptr %__lead, align 4
  %shl41 = shl i32 %28, 6
  %29 = load i8, ptr %__t1, align 1
  %conv42 = zext i8 %29 to i32
  %and43 = and i32 %conv42, 63
  %or = or i32 %shl41, %and43
  store i32 %or, ptr %__lead, align 4
  %30 = load ptr, ptr %src.addr, align 8
  %incdec.ptr44 = getelementptr inbounds i8, ptr %30, i32 1
  store ptr %incdec.ptr44, ptr %src.addr, align 8
  %31 = load ptr, ptr %limit.addr, align 8
  %cmp45 = icmp ne ptr %incdec.ptr44, %31
  br i1 %cmp45, label %land.lhs.true46, label %if.else

land.lhs.true46:                                  ; preds = %land.lhs.true40
  %32 = load ptr, ptr %src.addr, align 8
  %33 = load i8, ptr %32, align 1
  %conv47 = zext i8 %33 to i32
  %sub48 = sub nsw i32 %conv47, 128
  %conv49 = trunc i32 %sub48 to i8
  store i8 %conv49, ptr %__t2, align 1
  %conv50 = zext i8 %conv49 to i32
  %cmp51 = icmp sle i32 %conv50, 63
  br i1 %cmp51, label %land.lhs.true52, label %if.else

land.lhs.true52:                                  ; preds = %land.lhs.true46
  %34 = load ptr, ptr %src.addr, align 8
  %incdec.ptr53 = getelementptr inbounds i8, ptr %34, i32 1
  store ptr %incdec.ptr53, ptr %src.addr, align 8
  %35 = load ptr, ptr %limit.addr, align 8
  %cmp54 = icmp ne ptr %incdec.ptr53, %35
  br i1 %cmp54, label %land.lhs.true55, label %if.else

land.lhs.true55:                                  ; preds = %land.lhs.true52
  %36 = load ptr, ptr %src.addr, align 8
  %37 = load i8, ptr %36, align 1
  %conv56 = zext i8 %37 to i32
  %sub57 = sub nsw i32 %conv56, 128
  %conv58 = trunc i32 %sub57 to i8
  store i8 %conv58, ptr %__t3, align 1
  %conv59 = zext i8 %conv58 to i32
  %cmp60 = icmp sle i32 %conv59, 63
  br i1 %cmp60, label %land.lhs.true61, label %if.else

land.lhs.true61:                                  ; preds = %land.lhs.true55
  %38 = load i32, ptr %__lead, align 4
  %normTrie62 = getelementptr inbounds %"class.icu_75::Normalizer2Impl", ptr %this1, i32 0, i32 13
  %39 = load ptr, ptr %normTrie62, align 8
  %shifted12HighStart = getelementptr inbounds %struct.UCPTrie, ptr %39, i32 0, i32 5
  %40 = load i16, ptr %shifted12HighStart, align 4
  %conv63 = zext i16 %40 to i32
  %cmp64 = icmp sge i32 %38, %conv63
  br i1 %cmp64, label %cond.true65, label %cond.false68

cond.true65:                                      ; preds = %land.lhs.true61
  %normTrie66 = getelementptr inbounds %"class.icu_75::Normalizer2Impl", ptr %this1, i32 0, i32 13
  %41 = load ptr, ptr %normTrie66, align 8
  %dataLength = getelementptr inbounds %struct.UCPTrie, ptr %41, i32 0, i32 3
  %42 = load i32, ptr %dataLength, align 4
  %sub67 = sub nsw i32 %42, 2
  br label %cond.end

cond.false68:                                     ; preds = %land.lhs.true61
  %normTrie69 = getelementptr inbounds %"class.icu_75::Normalizer2Impl", ptr %this1, i32 0, i32 13
  %43 = load ptr, ptr %normTrie69, align 8
  %44 = load i32, ptr %__lead, align 4
  %45 = load i8, ptr %__t2, align 1
  %46 = load i8, ptr %__t3, align 1
  %call = call i32 @ucptrie_internalSmallU8Index_75(ptr noundef %43, i32 noundef %44, i8 noundef zeroext %45, i8 noundef zeroext %46)
  br label %cond.end

cond.end:                                         ; preds = %cond.false68, %cond.true65
  %cond = phi i32 [ %sub67, %cond.true65 ], [ %call, %cond.false68 ]
  store i32 %cond, ptr %__lead, align 4
  br i1 true, label %if.then87, label %if.else

cond.false70:                                     ; preds = %land.lhs.true
  %47 = load i32, ptr %__lead, align 4
  %cmp71 = icmp sge i32 %47, 194
  br i1 %cmp71, label %land.lhs.true72, label %if.else

land.lhs.true72:                                  ; preds = %cond.false70
  %48 = load ptr, ptr %src.addr, align 8
  %49 = load i8, ptr %48, align 1
  %conv73 = zext i8 %49 to i32
  %sub74 = sub nsw i32 %conv73, 128
  %conv75 = trunc i32 %sub74 to i8
  store i8 %conv75, ptr %__t1, align 1
  %conv76 = zext i8 %conv75 to i32
  %cmp77 = icmp sle i32 %conv76, 63
  br i1 %cmp77, label %land.lhs.true78, label %if.else

land.lhs.true78:                                  ; preds = %land.lhs.true72
  %normTrie79 = getelementptr inbounds %"class.icu_75::Normalizer2Impl", ptr %this1, i32 0, i32 13
  %50 = load ptr, ptr %normTrie79, align 8
  %index80 = getelementptr inbounds %struct.UCPTrie, ptr %50, i32 0, i32 0
  %51 = load ptr, ptr %index80, align 8
  %52 = load i32, ptr %__lead, align 4
  %and81 = and i32 %52, 31
  %idxprom82 = sext i32 %and81 to i64
  %arrayidx83 = getelementptr inbounds i16, ptr %51, i64 %idxprom82
  %53 = load i16, ptr %arrayidx83, align 2
  %conv84 = zext i16 %53 to i32
  %54 = load i8, ptr %__t1, align 1
  %conv85 = zext i8 %54 to i32
  %add86 = add nsw i32 %conv84, %conv85
  store i32 %add86, ptr %__lead, align 4
  br i1 true, label %if.then87, label %if.else

if.then87:                                        ; preds = %land.lhs.true78, %cond.end, %land.lhs.true20
  %55 = load ptr, ptr %src.addr, align 8
  %incdec.ptr88 = getelementptr inbounds i8, ptr %55, i32 1
  store ptr %incdec.ptr88, ptr %src.addr, align 8
  br label %if.end92

if.else:                                          ; preds = %land.lhs.true78, %land.lhs.true72, %cond.false70, %cond.end, %land.lhs.true55, %land.lhs.true52, %land.lhs.true46, %land.lhs.true40, %land.lhs.true31, %cond.false, %land.lhs.true20, %land.lhs.true15, %land.lhs.true12, %cond.true7, %if.then3
  %normTrie89 = getelementptr inbounds %"class.icu_75::Normalizer2Impl", ptr %this1, i32 0, i32 13
  %56 = load ptr, ptr %normTrie89, align 8
  %dataLength90 = getelementptr inbounds %struct.UCPTrie, ptr %56, i32 0, i32 3
  %57 = load i32, ptr %dataLength90, align 4
  %sub91 = sub nsw i32 %57, 1
  store i32 %sub91, ptr %__lead, align 4
  br label %if.end92

if.end92:                                         ; preds = %if.else, %if.then87
  br label %if.end93

if.end93:                                         ; preds = %if.end92, %do.body
  %normTrie94 = getelementptr inbounds %"class.icu_75::Normalizer2Impl", ptr %this1, i32 0, i32 13
  %58 = load ptr, ptr %normTrie94, align 8
  %data = getelementptr inbounds %struct.UCPTrie, ptr %58, i32 0, i32 1
  %59 = load ptr, ptr %data, align 8
  %60 = load i32, ptr %__lead, align 4
  %idxprom95 = sext i32 %60 to i64
  %arrayidx96 = getelementptr inbounds i16, ptr %59, i64 %idxprom95
  %61 = load i16, ptr %arrayidx96, align 2
  store i16 %61, ptr %norm16, align 2
  br label %do.end

do.end:                                           ; preds = %if.end93
  %62 = load i16, ptr %norm16, align 2
  %call97 = call noundef signext i8 @_ZNK6icu_7515Normalizer2Impl27norm16HasCompBoundaryBeforeEt(ptr noundef nonnull align 8 dereferenceable(80) %this1, i16 noundef zeroext %62)
  store i8 %call97, ptr %retval, align 1
  br label %return

return:                                           ; preds = %do.end, %if.then
  %63 = load i8, ptr %retval, align 1
  ret i8 %63
}