; Function Attrs: mustprogress uwtable
define noundef signext i8 @_ZNK6icu_7515Normalizer2Impl21hasCompBoundaryBeforeEPKhS2_(ptr nocapture noundef nonnull readonly align 8 dereferenceable(80) %this, ptr noundef readonly %src, ptr noundef readnone %limit) local_unnamed_addr #0 align 2 {
entry:
  %cmp = icmp eq ptr %src, %limit
  br i1 %cmp, label %return, label %do.body

do.body:                                          ; preds = %entry
  %incdec.ptr = getelementptr inbounds i8, ptr %src, i64 1
  %0 = load i8, ptr %src, align 1
  %conv = zext i8 %0 to i32
  %cmp2 = icmp sgt i8 %0, -1
  br i1 %cmp2, label %if.end93, label %if.then3

if.then3:                                         ; preds = %do.body
  %cmp4.not = icmp eq ptr %incdec.ptr, %limit
  br i1 %cmp4.not, label %if.else, label %land.lhs.true

land.lhs.true:                                    ; preds = %if.then3
  %cmp5 = icmp ugt i8 %0, -33
  br i1 %cmp5, label %cond.true, label %cond.false70

cond.true:                                        ; preds = %land.lhs.true
  %cmp6 = icmp ult i8 %0, -16
  br i1 %cmp6, label %cond.true7, label %cond.false

cond.true7:                                       ; preds = %cond.true
  %and8 = and i32 %conv, 15
  %idxprom = zext nneg i32 %and8 to i64
  %arrayidx = getelementptr inbounds [17 x i8], ptr @.str, i64 0, i64 %idxprom
  %1 = load i8, ptr %arrayidx, align 1
  %conv932 = zext i8 %1 to i32
  %2 = load i8, ptr %incdec.ptr, align 1
  %conv10 = zext i8 %2 to i32
  %shr = lshr i32 %conv10, 5
  %shl = shl nuw nsw i32 1, %shr
  %and11 = and i32 %shl, %conv932
  %tobool.not = icmp eq i32 %and11, 0
  br i1 %tobool.not, label %if.else, label %land.lhs.true12

land.lhs.true12:                                  ; preds = %cond.true7
  %incdec.ptr13 = getelementptr inbounds i8, ptr %src, i64 2
  %cmp14.not = icmp eq ptr %incdec.ptr13, %limit
  br i1 %cmp14.not, label %if.else, label %land.lhs.true15

land.lhs.true15:                                  ; preds = %land.lhs.true12
  %3 = load i8, ptr %incdec.ptr13, align 1
  %sub = xor i8 %3, -128
  %cmp19 = icmp ult i8 %sub, 64
  br i1 %cmp19, label %land.lhs.true20, label %if.else

land.lhs.true20:                                  ; preds = %land.lhs.true15
  %conv18 = zext nneg i8 %sub to i32
  %normTrie = getelementptr inbounds i8, ptr %this, i64 32
  %4 = load ptr, ptr %normTrie, align 8
  %5 = load ptr, ptr %4, align 8
  %shl21 = shl nuw nsw i32 %and8, 6
  %and23 = and i32 %conv10, 63
  %add = or disjoint i32 %and23, %shl21
  %idxprom24 = zext nneg i32 %add to i64
  %arrayidx25 = getelementptr inbounds i16, ptr %5, i64 %idxprom24
  %6 = load i16, ptr %arrayidx25, align 2
  %conv26 = zext i16 %6 to i32
  %add28 = add nuw nsw i32 %conv26, %conv18
  br label %if.end93

cond.false:                                       ; preds = %cond.true
  %sub29 = add nsw i32 %conv, -240
  %cmp30 = icmp ult i8 %0, -11
  br i1 %cmp30, label %land.lhs.true31, label %if.else

land.lhs.true31:                                  ; preds = %cond.false
  %7 = load i8, ptr %incdec.ptr, align 1
  %conv32 = zext i8 %7 to i32
  %shr33 = lshr i32 %conv32, 4
  %idxprom34 = zext nneg i32 %shr33 to i64
  %arrayidx35 = getelementptr inbounds [17 x i8], ptr @.str.1, i64 0, i64 %idxprom34
  %8 = load i8, ptr %arrayidx35, align 1
  %conv36 = sext i8 %8 to i32
  %shl37 = shl nuw nsw i32 1, %sub29
  %and38 = and i32 %shl37, %conv36
  %tobool39.not = icmp eq i32 %and38, 0
  br i1 %tobool39.not, label %if.else, label %land.lhs.true40

land.lhs.true40:                                  ; preds = %land.lhs.true31
  %shl41 = shl nuw nsw i32 %sub29, 6
  %and43 = and i32 %conv32, 63
  %or = or disjoint i32 %and43, %shl41
  %incdec.ptr44 = getelementptr inbounds i8, ptr %src, i64 2
  %cmp45.not = icmp eq ptr %incdec.ptr44, %limit
  br i1 %cmp45.not, label %if.else, label %land.lhs.true46

land.lhs.true46:                                  ; preds = %land.lhs.true40
  %9 = load i8, ptr %incdec.ptr44, align 1
  %sub48 = xor i8 %9, -128
  %cmp51 = icmp ult i8 %sub48, 64
  br i1 %cmp51, label %land.lhs.true52, label %if.else

land.lhs.true52:                                  ; preds = %land.lhs.true46
  %incdec.ptr53 = getelementptr inbounds i8, ptr %src, i64 3
  %cmp54.not = icmp eq ptr %incdec.ptr53, %limit
  br i1 %cmp54.not, label %if.else, label %land.lhs.true55

land.lhs.true55:                                  ; preds = %land.lhs.true52
  %10 = load i8, ptr %incdec.ptr53, align 1
  %sub57 = xor i8 %10, -128
  %cmp60 = icmp ult i8 %sub57, 64
  br i1 %cmp60, label %land.lhs.true61, label %if.else

land.lhs.true61:                                  ; preds = %land.lhs.true55
  %normTrie62 = getelementptr inbounds i8, ptr %this, i64 32
  %11 = load ptr, ptr %normTrie62, align 8
  %shifted12HighStart = getelementptr inbounds i8, ptr %11, i64 28
  %12 = load i16, ptr %shifted12HighStart, align 4
  %conv63 = zext i16 %12 to i32
  %cmp64.not = icmp ult i32 %or, %conv63
  br i1 %cmp64.not, label %cond.false68, label %cond.true65

cond.true65:                                      ; preds = %land.lhs.true61
  %dataLength = getelementptr inbounds i8, ptr %11, i64 20
  %13 = load i32, ptr %dataLength, align 4
  %sub67 = add nsw i32 %13, -2
  br label %if.end93

cond.false68:                                     ; preds = %land.lhs.true61
  %call = tail call i32 @ucptrie_internalSmallU8Index_75(ptr noundef nonnull %11, i32 noundef %or, i8 noundef zeroext %sub48, i8 noundef zeroext %sub57)
  br label %if.end93

cond.false70:                                     ; preds = %land.lhs.true
  %cmp71 = icmp ugt i8 %0, -63
  br i1 %cmp71, label %land.lhs.true72, label %if.else

land.lhs.true72:                                  ; preds = %cond.false70
  %14 = load i8, ptr %incdec.ptr, align 1
  %sub74 = xor i8 %14, -128
  %cmp77 = icmp ult i8 %sub74, 64
  br i1 %cmp77, label %land.lhs.true78, label %if.else

land.lhs.true78:                                  ; preds = %land.lhs.true72
  %conv76 = zext nneg i8 %sub74 to i32
  %normTrie79 = getelementptr inbounds i8, ptr %this, i64 32
  %15 = load ptr, ptr %normTrie79, align 8
  %16 = load ptr, ptr %15, align 8
  %and81 = and i32 %conv, 31
  %idxprom82 = zext nneg i32 %and81 to i64
  %arrayidx83 = getelementptr inbounds i16, ptr %16, i64 %idxprom82
  %17 = load i16, ptr %arrayidx83, align 2
  %conv84 = zext i16 %17 to i32
  %add86 = add nuw nsw i32 %conv84, %conv76
  br label %if.end93

if.else:                                          ; preds = %land.lhs.true72, %cond.false70, %land.lhs.true55, %land.lhs.true52, %land.lhs.true46, %land.lhs.true40, %land.lhs.true31, %cond.false, %land.lhs.true15, %land.lhs.true12, %cond.true7, %if.then3
  %normTrie89 = getelementptr inbounds i8, ptr %this, i64 32
  %18 = load ptr, ptr %normTrie89, align 8
  %dataLength90 = getelementptr inbounds i8, ptr %18, i64 20
  %19 = load i32, ptr %dataLength90, align 4
  %sub91 = add nsw i32 %19, -1
  br label %if.end93

if.end93:                                         ; preds = %land.lhs.true78, %land.lhs.true20, %cond.false68, %cond.true65, %if.else, %do.body
  %__lead.1 = phi i32 [ %conv, %do.body ], [ %sub91, %if.else ], [ %add28, %land.lhs.true20 ], [ %add86, %land.lhs.true78 ], [ %sub67, %cond.true65 ], [ %call, %cond.false68 ]
  %normTrie94 = getelementptr inbounds i8, ptr %this, i64 32
  %20 = load ptr, ptr %normTrie94, align 8
  %data = getelementptr inbounds i8, ptr %20, i64 8
  %21 = load ptr, ptr %data, align 8
  %idxprom95 = sext i32 %__lead.1 to i64
  %arrayidx96 = getelementptr inbounds i16, ptr %21, i64 %idxprom95
  %22 = load i16, ptr %arrayidx96, align 2
  %minNoNoCompNoMaybeCC.i = getelementptr inbounds i8, ptr %this, i64 22
  %23 = load i16, ptr %minNoNoCompNoMaybeCC.i, align 2
  %cmp.i = icmp ugt i16 %23, %22
  br i1 %cmp.i, label %return, label %lor.rhs.i

lor.rhs.i:                                        ; preds = %if.end93
  %limitNoNo.i.i = getelementptr inbounds i8, ptr %this, i64 26
  %24 = load i16, ptr %limitNoNo.i.i, align 2
  %cmp.not.i.i = icmp ule i16 %24, %22
  %minMaybeYes.i.i = getelementptr inbounds i8, ptr %this, i64 30
  %25 = load i16, ptr %minMaybeYes.i.i, align 2
  %cmp5.i.i = icmp ugt i16 %25, %22
  %narrow.i.i = select i1 %cmp.not.i.i, i1 %cmp5.i.i, i1 false
  %conv6.i.i = zext i1 %narrow.i.i to i8
  br label %return

return:                                           ; preds = %lor.rhs.i, %if.end93, %entry
  %retval.0 = phi i8 [ 1, %entry ], [ 1, %if.end93 ], [ %conv6.i.i, %lor.rhs.i ]
  ret i8 %retval.0
}